target datalayout = "e-m:e-p270:32:32-p271:32:32-p272:64:64-i64:64-i128:128-f80:128-n8:16:32:64-S128"
target triple = "x86_64-pc-linux-gnu"

%"class.icu_77::RegexMatcher" = type { %"class.icu_77::UObject", ptr, ptr, ptr, ptr, ptr, i64, i32, i64, i64, i64, i64, i64, i64, i64, i64, i8, i8, i8, i64, i64, i64, i64, i8, i8, ptr, ptr, ptr, [8 x i64], i32, i32, i32, i32, ptr, ptr, ptr, ptr, i8, i8, i32, ptr, ptr }
%"class.icu_77::UObject" = type { ptr }
%"class.icu_77::RegexPattern" = type { %"class.icu_77::UObject", ptr, ptr, i32, ptr, %"class.icu_77::UnicodeString", ptr, ptr, i32, i32, i32, i32, ptr, i32, i32, i32, ptr, i32, ptr, i8, ptr }
%"class.icu_77::UnicodeString" = type { %"class.icu_77::Replaceable", %"union.icu_77::UnicodeString::StackBufferOrFields" }
%"class.icu_77::Replaceable" = type { %"class.icu_77::UObject" }
%"union.icu_77::UnicodeString::StackBufferOrFields" = type { %struct.anon.0, [32 x i8] }
%struct.anon.0 = type { i16, i32, i32, ptr }

; Function Attrs: mustprogress nounwind uwtable
define void @_ZN6icu_7712RegexMatcher19resetPreserveRegionEv(ptr noundef nonnull align 8 dereferenceable(336) %0) #0 align 2 {
  %2 = alloca ptr, align 8
  store ptr %0, ptr %2, align 8, !tbaa !23
  %3 = load ptr, ptr %2, align 8
  %4 = getelementptr inbounds nuw %"class.icu_77::RegexMatcher", ptr %3, i32 0, i32 19
  store i64 0, ptr %4, align 8, !tbaa !67
  %5 = getelementptr inbounds nuw %"class.icu_77::RegexMatcher", ptr %3, i32 0, i32 20
  store i64 0, ptr %5, align 8, !tbaa !68
  %6 = getelementptr inbounds nuw %"class.icu_77::RegexMatcher", ptr %3, i32 0, i32 21
  store i64 -1, ptr %6, align 8, !tbaa !69
  %7 = getelementptr inbounds nuw %"class.icu_77::RegexMatcher", ptr %3, i32 0, i32 22
  store i64 0, ptr %7, align 8, !tbaa !70
  %8 = getelementptr inbounds nuw %"class.icu_77::RegexMatcher", ptr %3, i32 0, i32 18
  store i8 0, ptr %8, align 2, !tbaa !66
  %9 = getelementptr inbounds nuw %"class.icu_77::RegexMatcher", ptr %3, i32 0, i32 23
  store i8 0, ptr %9, align 8, !tbaa !71
  %10 = getelementptr inbounds nuw %"class.icu_77::RegexMatcher", ptr %3, i32 0, i32 24
  store i8 0, ptr %10, align 1, !tbaa !72
  %11 = getelementptr inbounds nuw %"class.icu_77::RegexMatcher", ptr %3, i32 0, i32 30
  store i32 0, ptr %11, align 4, !tbaa !76
  %12 = getelementptr inbounds nuw %"class.icu_77::RegexMatcher", ptr %3, i32 0, i32 31
  store i32 10000, ptr %12, align 8, !tbaa !77
  ret void
}

; Function Attrs: mustprogress uwtable
define noundef nonnull align 8 dereferenceable(336) ptr @_ZN6icu_7712RegexMatcher5resetEv(ptr noundef nonnull align 8 dereferenceable(336) %0) unnamed_addr #1 align 2 {
  %2 = alloca ptr, align 8
  store ptr %0, ptr %2, align 8, !tbaa !23
  %3 = load ptr, ptr %2, align 8
  %4 = getelementptr inbounds nuw %"class.icu_77::RegexMatcher", ptr %3, i32 0, i32 8
  store i64 0, ptr %4, align 8, !tbaa !56
  %5 = getelementptr inbounds nuw %"class.icu_77::RegexMatcher", ptr %3, i32 0, i32 6
  %6 = load i64, ptr %5, align 8, !tbaa !90
  %7 = getelementptr inbounds nuw %"class.icu_77::RegexMatcher", ptr %3, i32 0, i32 9
  store i64 %6, ptr %7, align 8, !tbaa !57
  %8 = getelementptr inbounds nuw %"class.icu_77::RegexMatcher", ptr %3, i32 0, i32 14
  store i64 0, ptr %8, align 8, !tbaa !62
  %9 = getelementptr inbounds nuw %"class.icu_77::RegexMatcher", ptr %3, i32 0, i32 6
  %10 = load i64, ptr %9, align 8, !tbaa !90
  %11 = getelementptr inbounds nuw %"class.icu_77::RegexMatcher", ptr %3, i32 0, i32 15
  store i64 %10, ptr %11, align 8, !tbaa !63
  %12 = getelementptr inbounds nuw %"class.icu_77::RegexMatcher", ptr %3, i32 0, i32 10
  store i64 0, ptr %12, align 8, !tbaa !58
  %13 = getelementptr inbounds nuw %"class.icu_77::RegexMatcher", ptr %3, i32 0, i32 6
  %14 = load i64, ptr %13, align 8, !tbaa !90
  %15 = getelementptr inbounds nuw %"class.icu_77::RegexMatcher", ptr %3, i32 0, i32 11
  store i64 %14, ptr %15, align 8, !tbaa !59
  %16 = getelementptr inbounds nuw %"class.icu_77::RegexMatcher", ptr %3, i32 0, i32 12
  store i64 0, ptr %16, align 8, !tbaa !60
  %17 = getelementptr inbounds nuw %"class.icu_77::RegexMatcher", ptr %3, i32 0, i32 6
  %18 = load i64, ptr %17, align 8, !tbaa !90
  %19 = getelementptr inbounds nuw %"class.icu_77::RegexMatcher", ptr %3, i32 0, i32 13
  store i64 %18, ptr %19, align 8, !tbaa !61
  call void @_ZN6icu_7712RegexMatcher19resetPreserveRegionEv(ptr noundef nonnull align 8 dereferenceable(336) %3)
  ret ptr %3
}

; Function Attrs: inlinehint mustprogress nounwind uwtable
define internal noundef signext i8 @_ZL9U_FAILURE10UErrorCode(i32 noundef %0) #2 {
  %2 = alloca i32, align 4
  store i32 %0, ptr %2, align 4, !tbaa !15
  %3 = load i32, ptr %2, align 4, !tbaa !15
  %4 = icmp sgt i32 %3, 0
  %5 = zext i1 %4 to i8
  ret i8 %5
}

; Function Attrs: mustprogress uwtable
define noundef nonnull align 8 dereferenceable(336) ptr @_ZN6icu_7712RegexMatcher5resetERKNS_13UnicodeStringE(ptr noundef nonnull align 8 dereferenceable(336) %0, ptr noundef nonnull align 8 dereferenceable(64) %1) unnamed_addr #1 align 2 {
  %3 = alloca ptr, align 8
  %4 = alloca ptr, align 8
  %5 = alloca ptr, align 8
  store ptr %0, ptr %4, align 8, !tbaa !23
  store ptr %1, ptr %5, align 8, !tbaa !100
  %6 = load ptr, ptr %4, align 8
  %7 = getelementptr inbounds nuw %"class.icu_77::RegexMatcher", ptr %6, i32 0, i32 4
  %8 = load ptr, ptr %7, align 8, !tbaa !87
  %9 = load ptr, ptr %5, align 8, !tbaa !100
  %10 = getelementptr inbounds nuw %"class.icu_77::RegexMatcher", ptr %6, i32 0, i32 39
  %11 = call ptr @utext_openConstUnicodeString_77(ptr noundef %8, ptr noundef %9, ptr noundef %10)
  %12 = getelementptr inbounds nuw %"class.icu_77::RegexMatcher", ptr %6, i32 0, i32 4
  store ptr %11, ptr %12, align 8, !tbaa !87
  %13 = getelementptr inbounds nuw %"class.icu_77::RegexMatcher", ptr %6, i32 0, i32 1
  %14 = load ptr, ptr %13, align 8, !tbaa !38
  %15 = getelementptr inbounds nuw %"class.icu_77::RegexPattern", ptr %14, i32 0, i32 19
  %16 = load i8, ptr %15, align 8, !tbaa !101
  %17 = icmp ne i8 %16, 0
  br i1 %17, label %18, label %26

18:                                               ; preds = %2
  %19 = getelementptr inbounds nuw %"class.icu_77::RegexMatcher", ptr %6, i32 0, i32 5
  %20 = load ptr, ptr %19, align 8, !tbaa !88
  %21 = getelementptr inbounds nuw %"class.icu_77::RegexMatcher", ptr %6, i32 0, i32 4
  %22 = load ptr, ptr %21, align 8, !tbaa !87
  %23 = getelementptr inbounds nuw %"class.icu_77::RegexMatcher", ptr %6, i32 0, i32 39
  %24 = call ptr @utext_clone_77(ptr noundef %20, ptr noundef %22, i8 noundef signext 0, i8 noundef signext 1, ptr noundef %23)
  %25 = getelementptr inbounds nuw %"class.icu_77::RegexMatcher", ptr %6, i32 0, i32 5
  store ptr %24, ptr %25, align 8, !tbaa !88
  br label %26

26:                                               ; preds = %18, %2
  %27 = getelementptr inbounds nuw %"class.icu_77::RegexMatcher", ptr %6, i32 0, i32 39
  %28 = load i32, ptr %27, align 4, !tbaa !29
  %29 = call noundef signext i8 @_ZL9U_FAILURE10UErrorCode(i32 noundef %28)
  %30 = icmp ne i8 %29, 0
  br i1 %30, label %31, label %32

31:                                               ; preds = %26
  store ptr %6, ptr %3, align 8
  br label %74

32:                                               ; preds = %26
  %33 = getelementptr inbounds nuw %"class.icu_77::RegexMatcher", ptr %6, i32 0, i32 4
  %34 = load ptr, ptr %33, align 8, !tbaa !87
  %35 = call i64 @utext_nativeLength_77(ptr noundef %34)
  %36 = getelementptr inbounds nuw %"class.icu_77::RegexMatcher", ptr %6, i32 0, i32 6
  store i64 %35, ptr %36, align 8, !tbaa !90
  %37 = call noundef nonnull align 8 dereferenceable(336) ptr @_ZN6icu_7712RegexMatcher5resetEv(ptr noundef nonnull align 8 dereferenceable(336) %6)
  %38 = getelementptr inbounds nuw %"class.icu_77::RegexMatcher", ptr %6, i32 0, i32 3
  %39 = load ptr, ptr %38, align 8, !tbaa !89
  %40 = icmp eq ptr %39, null
  br i1 %40, label %45, label %41

41:                                               ; preds = %32
  %42 = load ptr, ptr %39, align 8, !tbaa !27
  %43 = getelementptr inbounds ptr, ptr %42, i64 1
  %44 = load ptr, ptr %43, align 8
  call void %44(ptr noundef nonnull align 8 dereferenceable(64) %39) #11
  br label %45

45:                                               ; preds = %41, %32
  %46 = getelementptr inbounds nuw %"class.icu_77::RegexMatcher", ptr %6, i32 0, i32 3
  store ptr null, ptr %46, align 8, !tbaa !89
  %47 = getelementptr inbounds nuw %"class.icu_77::RegexMatcher", ptr %6, i32 0, i32 37
  store i8 1, ptr %47, align 8, !tbaa !91
  %48 = getelementptr inbounds nuw %"class.icu_77::RegexMatcher", ptr %6, i32 0, i32 40
  %49 = load ptr, ptr %48, align 8, !tbaa !85
  %50 = icmp ne ptr %49, null
  br i1 %50, label %51, label %60

51:                                               ; preds = %45
  %52 = getelementptr inbounds nuw %"class.icu_77::RegexMatcher", ptr %6, i32 0, i32 40
  %53 = load ptr, ptr %52, align 8, !tbaa !85
  %54 = getelementptr inbounds nuw %"class.icu_77::RegexMatcher", ptr %6, i32 0, i32 4
  %55 = load ptr, ptr %54, align 8, !tbaa !87
  %56 = getelementptr inbounds nuw %"class.icu_77::RegexMatcher", ptr %6, i32 0, i32 39
  %57 = load ptr, ptr %53, align 8, !tbaa !27
  %58 = getelementptr inbounds ptr, ptr %57, i64 8
  %59 = load ptr, ptr %58, align 8
  call void %59(ptr noundef nonnull align 8 dereferenceable(32) %53, ptr noundef %55, ptr noundef nonnull align 4 dereferenceable(4) %56)
  br label %60

60:                                               ; preds = %51, %45
  %61 = getelementptr inbounds nuw %"class.icu_77::RegexMatcher", ptr %6, i32 0, i32 41
  %62 = load ptr, ptr %61, align 8, !tbaa !86
  %63 = icmp ne ptr %62, null
  br i1 %63, label %64, label %73

64:                                               ; preds = %60
  %65 = getelementptr inbounds nuw %"class.icu_77::RegexMatcher", ptr %6, i32 0, i32 41
  %66 = load ptr, ptr %65, align 8, !tbaa !86
  %67 = getelementptr inbounds nuw %"class.icu_77::RegexMatcher", ptr %6, i32 0, i32 4
  %68 = load ptr, ptr %67, align 8, !tbaa !87
  %69 = getelementptr inbounds nuw %"class.icu_77::RegexMatcher", ptr %6, i32 0, i32 39
  %70 = load ptr, ptr %66, align 8, !tbaa !27
  %71 = getelementptr inbounds ptr, ptr %70, i64 8
  %72 = load ptr, ptr %71, align 8
  call void %72(ptr noundef nonnull align 8 dereferenceable(32) %66, ptr noundef %68, ptr noundef nonnull align 4 dereferenceable(4) %69)
  br label %73

73:                                               ; preds = %64, %60
  store ptr %6, ptr %3, align 8
  br label %74

74:                                               ; preds = %73, %31
  %75 = load ptr, ptr %3, align 8
  ret ptr %75
}