; Function Attrs: mustprogress uwtable
define noundef nonnull align 8 dereferenceable(336) ptr @_ZN6icu_7712RegexMatcher5resetERKNS_13UnicodeStringE(ptr noundef nonnull returned align 8 dereferenceable(336) %0, ptr noundef nonnull align 8 dereferenceable(64) %1) unnamed_addr #1 align 2 {
  %3 = getelementptr inbounds nuw i8, ptr %0, i64 32
  %4 = load ptr, ptr %3, align 8, !tbaa !77
  %5 = getelementptr inbounds nuw i8, ptr %0, i64 316
  %6 = tail call ptr @utext_openConstUnicodeString_77(ptr noundef %4, ptr noundef nonnull %1, ptr noundef nonnull %5)
  store ptr %6, ptr %3, align 8, !tbaa !77
  %7 = getelementptr inbounds nuw i8, ptr %0, i64 8
  %8 = load ptr, ptr %7, align 8, !tbaa !42
  %9 = getelementptr inbounds nuw i8, ptr %8, i64 184
  %10 = load i8, ptr %9, align 8, !tbaa !81
  %.not = icmp eq i8 %10, 0
  br i1 %.not, label %15, label %11

11:                                               ; preds = %2
  %12 = getelementptr inbounds nuw i8, ptr %0, i64 40
  %13 = load ptr, ptr %12, align 8, !tbaa !78
  %14 = tail call ptr @utext_clone_77(ptr noundef %13, ptr noundef %6, i8 noundef signext 0, i8 noundef signext 1, ptr noundef nonnull %5)
  store ptr %14, ptr %12, align 8, !tbaa !78
  br label %15

15:                                               ; preds = %11, %2
  %16 = load i32, ptr %5, align 4, !tbaa !39
  %17 = icmp slt i32 %16, 1
  br i1 %17, label %18, label %62

18:                                               ; preds = %15
  %19 = load ptr, ptr %3, align 8, !tbaa !77
  %20 = tail call i64 @utext_nativeLength_77(ptr noundef %19)
  %21 = getelementptr inbounds nuw i8, ptr %0, i64 48
  store i64 %20, ptr %21, align 8, !tbaa !66
  %22 = getelementptr inbounds nuw i8, ptr %0, i64 64
  store i64 0, ptr %22, align 8, !tbaa !65
  %23 = getelementptr inbounds nuw i8, ptr %0, i64 72
  store i64 %20, ptr %23, align 8, !tbaa !67
  %24 = getelementptr inbounds nuw i8, ptr %0, i64 112
  store i64 0, ptr %24, align 8, !tbaa !68
  %25 = getelementptr inbounds nuw i8, ptr %0, i64 120
  store i64 %20, ptr %25, align 8, !tbaa !69
  %26 = getelementptr inbounds nuw i8, ptr %0, i64 80
  store i64 0, ptr %26, align 8, !tbaa !70
  %27 = getelementptr inbounds nuw i8, ptr %0, i64 88
  store i64 %20, ptr %27, align 8, !tbaa !71
  %28 = getelementptr inbounds nuw i8, ptr %0, i64 96
  store i64 0, ptr %28, align 8, !tbaa !72
  %29 = getelementptr inbounds nuw i8, ptr %0, i64 104
  store i64 %20, ptr %29, align 8, !tbaa !73
  %30 = getelementptr inbounds nuw i8, ptr %0, i64 136
  %31 = getelementptr inbounds nuw i8, ptr %0, i64 152
  tail call void @llvm.memset.p0.i64(ptr noundef nonnull align 8 dereferenceable(16) %30, i8 0, i64 16, i1 false)
  store i64 -1, ptr %31, align 8, !tbaa !30
  %32 = getelementptr inbounds nuw i8, ptr %0, i64 160
  store i64 0, ptr %32, align 8, !tbaa !31
  %33 = getelementptr inbounds nuw i8, ptr %0, i64 130
  store i8 0, ptr %33, align 2, !tbaa !29
  %34 = getelementptr inbounds nuw i8, ptr %0, i64 168
  store i8 0, ptr %34, align 8, !tbaa !32
  %35 = getelementptr inbounds nuw i8, ptr %0, i64 169
  store i8 0, ptr %35, align 1, !tbaa !33
  %36 = getelementptr inbounds nuw i8, ptr %0, i64 268
  store i32 0, ptr %36, align 4, !tbaa !35
  %37 = getelementptr inbounds nuw i8, ptr %0, i64 272
  store i32 10000, ptr %37, align 8, !tbaa !36
  %38 = getelementptr inbounds nuw i8, ptr %0, i64 24
  %39 = load ptr, ptr %38, align 8, !tbaa !76
  %40 = icmp eq ptr %39, null
  br i1 %40, label %45, label %41

41:                                               ; preds = %18
  %42 = load ptr, ptr %39, align 8, !tbaa !15
  %43 = getelementptr inbounds nuw i8, ptr %42, i64 8
  %44 = load ptr, ptr %43, align 8
  tail call void %44(ptr noundef nonnull align 8 dereferenceable(64) %39) #21
  br label %45

45:                                               ; preds = %41, %18
  store ptr null, ptr %38, align 8, !tbaa !76
  %46 = getelementptr inbounds nuw i8, ptr %0, i64 312
  store i8 1, ptr %46, align 8, !tbaa !41
  %47 = getelementptr inbounds nuw i8, ptr %0, i64 320
  %48 = load ptr, ptr %47, align 8, !tbaa !79
  %.not6 = icmp eq ptr %48, null
  br i1 %.not6, label %54, label %49

49:                                               ; preds = %45
  %50 = load ptr, ptr %3, align 8, !tbaa !77
  %51 = load ptr, ptr %48, align 8, !tbaa !15
  %52 = getelementptr inbounds nuw i8, ptr %51, i64 64
  %53 = load ptr, ptr %52, align 8
  tail call void %53(ptr noundef nonnull align 8 dereferenceable(32) %48, ptr noundef %50, ptr noundef nonnull align 4 dereferenceable(4) %5)
  br label %54

54:                                               ; preds = %49, %45
  %55 = getelementptr inbounds nuw i8, ptr %0, i64 328
  %56 = load ptr, ptr %55, align 8, !tbaa !80
  %.not7 = icmp eq ptr %56, null
  br i1 %.not7, label %62, label %57

57:                                               ; preds = %54
  %58 = load ptr, ptr %3, align 8, !tbaa !77
  %59 = load ptr, ptr %56, align 8, !tbaa !15
  %60 = getelementptr inbounds nuw i8, ptr %59, i64 64
  %61 = load ptr, ptr %60, align 8
  tail call void %61(ptr noundef nonnull align 8 dereferenceable(32) %56, ptr noundef %58, ptr noundef nonnull align 4 dereferenceable(4) %5)
  br label %62

62:                                               ; preds = %54, %57, %15
  ret ptr %0
}